target datalayout = "e-m:e-p270:32:32-p271:32:32-p272:64:64-i64:64-i128:128-f80:128-n8:16:32:64-S128"
target triple = "x86_64-pc-linux-gnu"

%"class.rocksdb::CompactOnDeletionCollectorFactory" = type { %"class.rocksdb::TablePropertiesCollectorFactory", %"struct.std::atomic", %"struct.std::atomic", %"struct.std::atomic.31" }
%"class.rocksdb::TablePropertiesCollectorFactory" = type { %"class.rocksdb::Customizable" }
%"class.rocksdb::Customizable" = type { %"class.rocksdb::Configurable" }
%"class.rocksdb::Configurable" = type { ptr, %"class.std::vector" }
%"class.std::vector" = type { %"struct.std::_Vector_base" }
%"struct.std::_Vector_base" = type { %"struct.std::_Vector_base<rocksdb::Configurable::RegisteredOptions, std::allocator<rocksdb::Configurable::RegisteredOptions>>::_Vector_impl" }
%"struct.std::_Vector_base<rocksdb::Configurable::RegisteredOptions, std::allocator<rocksdb::Configurable::RegisteredOptions>>::_Vector_impl" = type { %"struct.std::_Vector_base<rocksdb::Configurable::RegisteredOptions, std::allocator<rocksdb::Configurable::RegisteredOptions>>::_Vector_impl_data" }
%"struct.std::_Vector_base<rocksdb::Configurable::RegisteredOptions, std::allocator<rocksdb::Configurable::RegisteredOptions>>::_Vector_impl_data" = type { ptr, ptr, ptr }
%"struct.std::atomic" = type { %"struct.std::__atomic_base" }
%"struct.std::__atomic_base" = type { i64 }
%"struct.std::atomic.31" = type { double }
%"struct.rocksdb::TablePropertiesCollectorFactory::Context" = type { i32, i32, i32, i64 }

@_ZN7rocksdb26CompactOnDeletionCollectorC1Emmd = unnamed_addr alias void (ptr, i64, i64, double), ptr @_ZN7rocksdb26CompactOnDeletionCollectorC2Emmd

; Function Attrs: noinline noreturn nounwind uwtable
define linkonce_odr hidden void @__clang_call_terminate(ptr noundef %0) #13 comdat {
  %2 = call ptr @__cxa_begin_catch(ptr %0) #6
  call void @_ZSt9terminatev() #24
  unreachable
}

; Function Attrs: mustprogress nounwind uwtable
define linkonce_odr noundef i32 @_ZStanSt12memory_orderSt23__memory_order_modifier(i32 noundef %0, i32 noundef %1) #0 comdat {
  %3 = alloca i32, align 4
  %4 = alloca i32, align 4
  store i32 %0, ptr %3, align 4, !tbaa !109
  store i32 %1, ptr %4, align 4, !tbaa !271
  %5 = load i32, ptr %3, align 4, !tbaa !109
  %6 = load i32, ptr %4, align 4, !tbaa !271
  %7 = and i32 %5, %6
  ret i32 %7
}

; Function Attrs: mustprogress nounwind uwtable
define linkonce_odr noundef double @_ZNKSt6atomicIdE4loadESt12memory_order(ptr noundef nonnull align 8 dereferenceable(8) %0, i32 noundef %1) #0 comdat align 2 {
  %3 = alloca ptr, align 8
  %4 = alloca i32, align 4
  %5 = alloca [8 x i8], align 8
  %6 = alloca ptr, align 8
  store ptr %0, ptr %3, align 8, !tbaa !103
  store i32 %1, ptr %4, align 4, !tbaa !109
  %7 = load ptr, ptr %3, align 8
  call void @llvm.lifetime.start.p0(i64 8, ptr %5) #6
  call void @llvm.lifetime.start.p0(i64 8, ptr %6) #6
  %8 = getelementptr inbounds [8 x i8], ptr %5, i64 0, i64 0
  store ptr %8, ptr %6, align 8, !tbaa !111
  %9 = getelementptr inbounds nuw %"struct.std::atomic.31", ptr %7, i32 0, i32 0
  %10 = load i32, ptr %4, align 4, !tbaa !109
  %11 = load ptr, ptr %6, align 8, !tbaa !111
  switch i32 %10, label %12 [
    i32 1, label %14
    i32 2, label %14
    i32 5, label %16
  ]

12:                                               ; preds = %2
  %13 = load atomic i64, ptr %9 monotonic, align 8
  store i64 %13, ptr %11, align 8
  br label %18

14:                                               ; preds = %2, %2
  %15 = load atomic i64, ptr %9 acquire, align 8
  store i64 %15, ptr %11, align 8
  br label %18

16:                                               ; preds = %2
  %17 = load atomic i64, ptr %9 seq_cst, align 8
  store i64 %17, ptr %11, align 8
  br label %18

18:                                               ; preds = %16, %14, %12
  %19 = load ptr, ptr %6, align 8, !tbaa !111
  %20 = load double, ptr %19, align 8, !tbaa !11
  call void @llvm.lifetime.end.p0(i64 8, ptr %6) #6
  call void @llvm.lifetime.end.p0(i64 8, ptr %5) #6
  ret double %20
}

; Function Attrs: alwaysinline mustprogress nounwind uwtable
define linkonce_odr noundef i64 @_ZNKSt13__atomic_baseImE4loadESt12memory_order(ptr noundef nonnull align 8 dereferenceable(8) %0, i32 noundef %1) #9 comdat align 2 personality ptr @__gxx_personality_v0 {
  %3 = alloca ptr, align 8
  %4 = alloca i32, align 4
  %5 = alloca i32, align 4
  %6 = alloca i64, align 8
  store ptr %0, ptr %3, align 8, !tbaa !107
  store i32 %1, ptr %4, align 4, !tbaa !109
  %7 = load ptr, ptr %3, align 8
  call void @llvm.lifetime.start.p0(i64 4, ptr %5) #6
  %8 = load i32, ptr %4, align 4, !tbaa !109
  %9 = invoke noundef i32 @_ZStanSt12memory_orderSt23__memory_order_modifier(i32 noundef %8, i32 noundef 65535)
          to label %10 unwind label %27

10:                                               ; preds = %2
  store i32 %9, ptr %5, align 4, !tbaa !109
  br label %11

11:                                               ; preds = %10
  br label %12

12:                                               ; preds = %11
  br label %13

13:                                               ; preds = %12
  br label %14

14:                                               ; preds = %13
  br label %15

15:                                               ; preds = %14
  br label %16

16:                                               ; preds = %15
  %17 = getelementptr inbounds nuw %"struct.std::__atomic_base", ptr %7, i32 0, i32 0
  %18 = load i32, ptr %4, align 4, !tbaa !109
  switch i32 %18, label %19 [
    i32 1, label %21
    i32 2, label %21
    i32 5, label %23
  ]

19:                                               ; preds = %16
  %20 = load atomic i64, ptr %17 monotonic, align 8
  store i64 %20, ptr %6, align 8
  br label %25

21:                                               ; preds = %16, %16
  %22 = load atomic i64, ptr %17 acquire, align 8
  store i64 %22, ptr %6, align 8
  br label %25

23:                                               ; preds = %16
  %24 = load atomic i64, ptr %17 seq_cst, align 8
  store i64 %24, ptr %6, align 8
  br label %25

25:                                               ; preds = %23, %21, %19
  %26 = load i64, ptr %6, align 8, !tbaa !9
  call void @llvm.lifetime.end.p0(i64 4, ptr %5) #6
  ret i64 %26

27:                                               ; preds = %2
  %28 = landingpad { ptr, i32 }
          catch ptr null
  %29 = extractvalue { ptr, i32 } %28, 0
  call void @__clang_call_terminate(ptr %29) #24
  unreachable
}

; Function Attrs: mustprogress uwtable
define noundef ptr @_ZN7rocksdb33CompactOnDeletionCollectorFactory30CreateTablePropertiesCollectorENS_31TablePropertiesCollectorFactory7ContextE(ptr noundef nonnull align 8 dereferenceable(56) %0, ptr noundef byval(%"struct.rocksdb::TablePropertiesCollectorFactory::Context") align 8 %1) unnamed_addr #3 align 2 personality ptr @__gxx_personality_v0 {
  %3 = alloca ptr, align 8
  %4 = alloca ptr, align 8
  %5 = alloca i32, align 4
  store ptr %0, ptr %3, align 8, !tbaa !97
  %6 = load ptr, ptr %3, align 8
  %7 = call noalias noundef nonnull ptr @_Znwm(i64 noundef 1112) #25
  %8 = getelementptr inbounds nuw %"class.rocksdb::CompactOnDeletionCollectorFactory", ptr %6, i32 0, i32 1
  %9 = call noundef i64 @_ZNKSt13__atomic_baseImE4loadESt12memory_order(ptr noundef nonnull align 8 dereferenceable(8) %8, i32 noundef 5) #6
  %10 = getelementptr inbounds nuw %"class.rocksdb::CompactOnDeletionCollectorFactory", ptr %6, i32 0, i32 2
  %11 = call noundef i64 @_ZNKSt13__atomic_baseImE4loadESt12memory_order(ptr noundef nonnull align 8 dereferenceable(8) %10, i32 noundef 5) #6
  %12 = getelementptr inbounds nuw %"class.rocksdb::CompactOnDeletionCollectorFactory", ptr %6, i32 0, i32 3
  %13 = call noundef double @_ZNKSt6atomicIdE4loadESt12memory_order(ptr noundef nonnull align 8 dereferenceable(8) %12, i32 noundef 5) #6
  invoke void @_ZN7rocksdb26CompactOnDeletionCollectorC1Emmd(ptr noundef nonnull align 8 dereferenceable(1106) %7, i64 noundef %9, i64 noundef %11, double noundef %13)
          to label %14 unwind label %15

14:                                               ; preds = %2
  ret ptr %7

15:                                               ; preds = %2
  %16 = landingpad { ptr, i32 }
          cleanup
  %17 = extractvalue { ptr, i32 } %16, 0
  store ptr %17, ptr %4, align 8
  %18 = extractvalue { ptr, i32 } %16, 1
  store i32 %18, ptr %5, align 4
  call void @_ZdlPvm(ptr noundef %7, i64 noundef 1112) #26
  br label %19

19:                                               ; preds = %15
  %20 = load ptr, ptr %4, align 8
  %21 = load i32, ptr %5, align 4
  %22 = insertvalue { ptr, i32 } poison, ptr %20, 0
  %23 = insertvalue { ptr, i32 } %22, i32 %21, 1
  resume { ptr, i32 } %23
}