; Function Attrs: mustprogress uwtable
define noundef nonnull ptr @_ZN7rocksdb33CompactOnDeletionCollectorFactory30CreateTablePropertiesCollectorENS_31TablePropertiesCollectorFactory7ContextE(ptr noundef nonnull readonly align 8 captures(none) dereferenceable(56) %0, ptr noundef readnone byval(%"struct.rocksdb::TablePropertiesCollectorFactory::Context") align 8 captures(none) %1) unnamed_addr #4 align 2 personality ptr @__gxx_personality_v0 {
  %3 = tail call noalias noundef nonnull dereferenceable(1112) ptr @_Znwm(i64 noundef 1112) #30
  %4 = getelementptr inbounds nuw i8, ptr %0, i64 32
  %5 = load atomic i64, ptr %4 seq_cst, align 8
  %6 = getelementptr inbounds nuw i8, ptr %0, i64 40
  %7 = load atomic i64, ptr %6 seq_cst, align 8
  %8 = getelementptr inbounds nuw i8, ptr %0, i64 48
  %9 = load atomic i64, ptr %8 seq_cst, align 8
  %10 = bitcast i64 %9 to double
  invoke void @_ZN7rocksdb26CompactOnDeletionCollectorC1Emmd(ptr noundef nonnull align 8 dereferenceable(1106) %3, i64 noundef %5, i64 noundef %7, double noundef %10)
          to label %11 unwind label %12

11:                                               ; preds = %2
  ret ptr %3

12:                                               ; preds = %2
  %13 = landingpad { ptr, i32 }
          cleanup
  tail call void @_ZdlPvm(ptr noundef nonnull %3, i64 noundef 1112) #29
  resume { ptr, i32 } %13
}